; Function Attrs: nounwind uwtable
define range(i32 -1, 1) i32 @H5Tset_strpad(i64 noundef %0, i32 noundef %1) local_unnamed_addr #0 {
  %3 = load i8, ptr @H5_libinit_g, align 1
  %4 = trunc i8 %3 to i1
  %5 = load i8, ptr @H5_libterm_g, align 1
  %6 = trunc i8 %5 to i1
  %7 = select i1 %4, i1 true, i1 %6
  br i1 %7, label %15, label %8

8:                                                ; preds = %2
  %9 = tail call i32 @H5_init_library() #2
  %10 = icmp slt i32 %9, 0
  br i1 %10, label %11, label %15

11:                                               ; preds = %8
  %12 = load i64, ptr @H5E_FUNC_g, align 8
  %13 = load i64, ptr @H5E_CANTINIT_g, align 8
  %14 = tail call i32 (ptr, ptr, i32, i64, i64, ptr, ...) @H5E_printf_stack(ptr noundef nonnull @.str, ptr noundef nonnull @__func__.H5Tset_strpad, i32 noundef 93, i64 noundef %12, i64 noundef %13, ptr noundef nonnull @.str.1) #2
  br label %.thread45

15:                                               ; preds = %8, %2
  %16 = tail call i32 @H5CX_push() #2
  %17 = icmp slt i32 %16, 0
  br i1 %17, label %18, label %22

18:                                               ; preds = %15
  %19 = load i64, ptr @H5E_FUNC_g, align 8
  %20 = load i64, ptr @H5E_CANTSET_g, align 8
  %21 = tail call i32 (ptr, ptr, i32, i64, i64, ptr, ...) @H5E_printf_stack(ptr noundef nonnull @.str, ptr noundef nonnull @__func__.H5Tset_strpad, i32 noundef 93, i64 noundef %19, i64 noundef %20, ptr noundef nonnull @.str.2) #2
  br label %.thread45

22:                                               ; preds = %15
  %23 = tail call i32 @H5E_clear_stack() #2
  %24 = tail call ptr @H5I_object_verify(i64 noundef %0, i32 noundef 3) #2
  %25 = icmp eq ptr %24, null
  br i1 %25, label %26, label %30

26:                                               ; preds = %22
  %27 = load i64, ptr @H5E_ARGS_g, align 8
  %28 = load i64, ptr @H5E_BADTYPE_g, align 8
  %29 = tail call i32 (ptr, ptr, i32, i64, i64, ptr, ...) @H5E_printf_stack(ptr noundef nonnull @.str, ptr noundef nonnull @__func__.H5Tset_strpad, i32 noundef 97, i64 noundef %27, i64 noundef %28, ptr noundef nonnull @.str.3) #2
  br label %.thread51

30:                                               ; preds = %22
  %31 = getelementptr inbounds i8, ptr %24, i64 40
  %32 = load ptr, ptr %31, align 8
  %33 = getelementptr inbounds i8, ptr %32, i64 8
  %34 = load i32, ptr %33, align 8
  %.not = icmp eq i32 %34, 0
  br i1 %.not, label %39, label %35

35:                                               ; preds = %30
  %36 = load i64, ptr @H5E_ARGS_g, align 8
  %37 = load i64, ptr @H5E_CANTINIT_g, align 8
  %38 = tail call i32 (ptr, ptr, i32, i64, i64, ptr, ...) @H5E_printf_stack(ptr noundef nonnull @.str, ptr noundef nonnull @__func__.H5Tset_strpad, i32 noundef 99, i64 noundef %36, i64 noundef %37, ptr noundef nonnull @.str.5) #2
  br label %.thread51

39:                                               ; preds = %30
  %or.cond = icmp ugt i32 %1, 2
  br i1 %or.cond, label %42, label %.preheader

.preheader:                                       ; preds = %39
  %40 = getelementptr inbounds i8, ptr %32, i64 32
  %41 = load ptr, ptr %40, align 8
  %.not3254 = icmp eq ptr %41, null
  br i1 %.not3254, label %.critedge, label %.lr.ph

42:                                               ; preds = %39
  %43 = load i64, ptr @H5E_ARGS_g, align 8
  %44 = load i64, ptr @H5E_BADVALUE_g, align 8
  %45 = tail call i32 (ptr, ptr, i32, i64, i64, ptr, ...) @H5E_printf_stack(ptr noundef nonnull @.str, ptr noundef nonnull @__func__.H5Tset_strpad, i32 noundef 101, i64 noundef %43, i64 noundef %44, ptr noundef nonnull @.str.6) #2
  br label %.thread51

.lr.ph:                                           ; preds = %.preheader, %.fold.split
  %46 = phi ptr [ %57, %.fold.split ], [ %41, %.preheader ]
  %47 = phi ptr [ %55, %.fold.split ], [ %32, %.preheader ]
  %48 = getelementptr inbounds i8, ptr %47, i64 12
  %49 = load i32, ptr %48, align 4
  switch i32 %49, label %.fold.split [
    i32 3, label %.critedge
    i32 9, label %50
  ]

50:                                               ; preds = %.lr.ph
  %51 = getelementptr inbounds i8, ptr %47, i64 48
  %52 = load i32, ptr %51, align 8
  %53 = icmp eq i32 %52, 1
  br i1 %53, label %.critedge, label %.fold.split

.fold.split:                                      ; preds = %.lr.ph, %50
  %54 = getelementptr inbounds i8, ptr %46, i64 40
  %55 = load ptr, ptr %54, align 8
  %56 = getelementptr inbounds i8, ptr %55, i64 32
  %57 = load ptr, ptr %56, align 8
  %.not32 = icmp eq ptr %57, null
  br i1 %.not32, label %.critedge, label %.lr.ph

.critedge:                                        ; preds = %50, %.fold.split, %.lr.ph, %.preheader
  %.lcssa = phi ptr [ %32, %.preheader ], [ %47, %.lr.ph ], [ %55, %.fold.split ], [ %47, %50 ]
  %58 = getelementptr inbounds i8, ptr %.lcssa, i64 12
  %59 = load i32, ptr %58, align 4
  switch i32 %59, label %64 [
    i32 3, label %69
    i32 9, label %60
  ]

60:                                               ; preds = %.critedge
  %61 = getelementptr inbounds i8, ptr %.lcssa, i64 48
  %62 = load i32, ptr %61, align 8
  %63 = icmp eq i32 %62, 1
  br i1 %63, label %69, label %64

64:                                               ; preds = %.critedge, %60
  %65 = load i64, ptr @H5E_DATATYPE_g, align 8
  %66 = load i64, ptr @H5E_UNSUPPORTED_g, align 8
  %67 = tail call i32 (ptr, ptr, i32, i64, i64, ptr, ...) @H5E_printf_stack(ptr noundef nonnull @.str, ptr noundef nonnull @__func__.H5Tset_strpad, i32 noundef 105, i64 noundef %65, i64 noundef %66, ptr noundef nonnull @.str.4) #2
  br label %.thread51

.thread51:                                        ; preds = %64, %42, %35, %26
  %68 = tail call i32 @H5CX_pop(i1 noundef zeroext true) #2
  br label %.thread45

69:                                               ; preds = %60, %.critedge
  %.sink59 = phi i64 [ 84, %.critedge ], [ 60, %60 ]
  %70 = getelementptr inbounds i8, ptr %.lcssa, i64 %.sink59
  store i32 %1, ptr %70, align 4
  %71 = tail call i32 @H5CX_pop(i1 noundef zeroext true) #2
  br label %73

.thread45:                                        ; preds = %18, %11, %.thread51
  %72 = tail call i32 @H5E_dump_api_stack() #2
  br label %73

73:                                               ; preds = %69, %.thread45
  %.0274048 = phi i32 [ -1, %.thread45 ], [ 0, %69 ]
  ret i32 %.0274048
}